; Function Attrs: mustprogress nofree norecurse nosync nounwind willreturn memory(argmem: write) uwtable
define range(i32 -1, 1) i32 @UI_method_set_writer(ptr noundef writeonly captures(address_is_null) %0, ptr noundef %1) local_unnamed_addr #6 {
  %.not = icmp eq ptr %0, null
  br i1 %.not, label %5, label %3

3:                                                ; preds = %2
  %4 = getelementptr inbounds nuw i8, ptr %0, i64 16
  store ptr %1, ptr %4, align 8, !tbaa !34
  br label %5

5:                                                ; preds = %2, %3
  %.0 = phi i32 [ 0, %3 ], [ -1, %2 ]
  ret i32 %.0
}